target datalayout = "e-m:e-p270:32:32-p271:32:32-p272:64:64-i64:64-i128:128-f80:128-n8:16:32:64-S128"
target triple = "x86_64-pc-linux-gnu"

%struct._ir_bitqueue = type { i32, i32, ptr }
%struct._ir_ctx = type { ptr, i32, i32, i32, i32, i32, i32, i32, i32, i32, i32, %struct._ir_insn, ptr, ptr, ptr, i32, i32, i32, ptr, ptr, ptr, ptr, ptr, ptr, i32, i32, i64, i32, i32, i32, i64, i32, i32, i32, i32, ptr, ptr, ptr, ptr, ptr, ptr, %union.anon.13, ptr, i32, i32, i32, i64, i32, i32, i32, ptr, ptr, ptr, ptr, %struct._ir_strtab, [61 x i32], [14 x i32] }
%struct._ir_insn = type { %struct.anon, %union.anon.5 }
%struct.anon = type { %union.anon, %union.anon.4 }
%union.anon = type { i32 }
%union.anon.4 = type { i32 }
%union.anon.5 = type { %union._ir_val }
%union._ir_val = type { double }
%union.anon.13 = type { ptr }
%struct._ir_strtab = type { ptr, i32, i32, i32, i32, ptr, i32, i32 }
%struct.anon.0 = type { %union.anon.1, %union.anon.3 }
%union.anon.1 = type { i16 }
%union.anon.3 = type { i16 }
%struct.anon.2 = type { i8, i8 }
%struct._ir_use_list = type { i32, i32 }

@ir_op_flags = external constant [108 x i32], align 16

; Function Attrs: nounwind uwtable
define internal zeroext i1 @ir_is_dead_load(ptr noundef %0, i32 noundef %1) #0 {
  %3 = alloca i1, align 1
  %4 = alloca ptr, align 8
  %5 = alloca i32, align 4
  %6 = alloca i32, align 4
  %7 = alloca i32, align 4
  store ptr %0, ptr %4, align 8, !tbaa !4
  store i32 %1, ptr %5, align 4, !tbaa !33
  %8 = load ptr, ptr %4, align 8, !tbaa !4
  %9 = getelementptr inbounds nuw %struct._ir_ctx, ptr %8, i32 0, i32 13
  %10 = load ptr, ptr %9, align 8, !tbaa !47
  %11 = load i32, ptr %5, align 4, !tbaa !33
  %12 = sext i32 %11 to i64
  %13 = getelementptr inbounds %struct._ir_use_list, ptr %10, i64 %12
  %14 = getelementptr inbounds nuw %struct._ir_use_list, ptr %13, i32 0, i32 1
  %15 = load i32, ptr %14, align 4, !tbaa !48
  %16 = icmp eq i32 %15, 1
  br i1 %16, label %17, label %56

17:                                               ; preds = %2
  call void @llvm.lifetime.start.p0(i64 4, ptr %6) #10
  %18 = load ptr, ptr %4, align 8, !tbaa !4
  %19 = getelementptr inbounds nuw %struct._ir_ctx, ptr %18, i32 0, i32 0
  %20 = load ptr, ptr %19, align 8, !tbaa !45
  %21 = load i32, ptr %5, align 4, !tbaa !33
  %22 = sext i32 %21 to i64
  %23 = getelementptr inbounds %struct._ir_insn, ptr %20, i64 %22
  %24 = getelementptr inbounds nuw %struct._ir_insn, ptr %23, i32 0, i32 0
  %25 = getelementptr inbounds nuw %struct.anon, ptr %24, i32 0, i32 0
  %26 = getelementptr inbounds nuw %struct.anon.0, ptr %25, i32 0, i32 0
  %27 = getelementptr inbounds nuw %struct.anon.2, ptr %26, i32 0, i32 0
  %28 = load i8, ptr %27, align 8, !tbaa !46
  %29 = zext i8 %28 to i64
  %30 = getelementptr inbounds nuw [108 x i32], ptr @ir_op_flags, i64 0, i64 %29
  %31 = load i32, ptr %30, align 4, !tbaa !33
  store i32 %31, ptr %6, align 4, !tbaa !33
  %32 = load i32, ptr %6, align 4, !tbaa !33
  %33 = and i32 %32, 1216
  %34 = icmp eq i32 %33, 1024
  br i1 %34, label %35, label %36

35:                                               ; preds = %17
  store i1 true, ptr %3, align 1
  store i32 1, ptr %7, align 4
  br label %53

36:                                               ; preds = %17
  %37 = load ptr, ptr %4, align 8, !tbaa !4
  %38 = getelementptr inbounds nuw %struct._ir_ctx, ptr %37, i32 0, i32 0
  %39 = load ptr, ptr %38, align 8, !tbaa !45
  %40 = load i32, ptr %5, align 4, !tbaa !33
  %41 = sext i32 %40 to i64
  %42 = getelementptr inbounds %struct._ir_insn, ptr %39, i64 %41
  %43 = getelementptr inbounds nuw %struct._ir_insn, ptr %42, i32 0, i32 0
  %44 = getelementptr inbounds nuw %struct.anon, ptr %43, i32 0, i32 0
  %45 = getelementptr inbounds nuw %struct.anon.0, ptr %44, i32 0, i32 0
  %46 = getelementptr inbounds nuw %struct.anon.2, ptr %45, i32 0, i32 0
  %47 = load i8, ptr %46, align 8, !tbaa !46
  %48 = zext i8 %47 to i32
  %49 = icmp eq i32 %48, 71
  br i1 %49, label %50, label %51

50:                                               ; preds = %36
  store i1 true, ptr %3, align 1
  store i32 1, ptr %7, align 4
  br label %53

51:                                               ; preds = %36
  br label %52

52:                                               ; preds = %51
  store i32 0, ptr %7, align 4
  br label %53

53:                                               ; preds = %52, %50, %35
  call void @llvm.lifetime.end.p0(i64 4, ptr %6) #10
  %54 = load i32, ptr %7, align 4
  switch i32 %54, label %59 [
    i32 0, label %55
    i32 1, label %57
  ]

55:                                               ; preds = %53
  br label %56

56:                                               ; preds = %55, %2
  store i1 false, ptr %3, align 1
  br label %57

57:                                               ; preds = %56, %53
  %58 = load i1, ptr %3, align 1
  ret i1 %58

59:                                               ; preds = %53
  unreachable
}

; Function Attrs: alwaysinline nounwind uwtable
define internal void @ir_bitqueue_add(ptr noundef %0, i32 noundef %1) #2 {
  %3 = alloca ptr, align 8
  %4 = alloca i32, align 4
  %5 = alloca i32, align 4
  store ptr %0, ptr %3, align 8, !tbaa !38
  store i32 %1, ptr %4, align 4, !tbaa !33
  call void @llvm.lifetime.start.p0(i64 4, ptr %5) #10
  %6 = load i32, ptr %4, align 4, !tbaa !33
  %7 = udiv i32 %6, 64
  store i32 %7, ptr %5, align 4, !tbaa !33
  %8 = load i32, ptr %4, align 4, !tbaa !33
  %9 = urem i32 %8, 64
  %10 = zext i32 %9 to i64
  %11 = shl i64 1, %10
  %12 = load ptr, ptr %3, align 8, !tbaa !38
  %13 = getelementptr inbounds nuw %struct._ir_bitqueue, ptr %12, i32 0, i32 2
  %14 = load ptr, ptr %13, align 8, !tbaa !44
  %15 = load i32, ptr %5, align 4, !tbaa !33
  %16 = zext i32 %15 to i64
  %17 = getelementptr inbounds nuw i64, ptr %14, i64 %16
  %18 = load i64, ptr %17, align 8, !tbaa !60
  %19 = or i64 %18, %11
  store i64 %19, ptr %17, align 8, !tbaa !60
  %20 = load i32, ptr %5, align 4, !tbaa !33
  %21 = load ptr, ptr %3, align 8, !tbaa !38
  %22 = getelementptr inbounds nuw %struct._ir_bitqueue, ptr %21, i32 0, i32 1
  %23 = load i32, ptr %22, align 4, !tbaa !43
  %24 = icmp ult i32 %20, %23
  br i1 %24, label %25, label %29

25:                                               ; preds = %2
  %26 = load i32, ptr %5, align 4, !tbaa !33
  %27 = load ptr, ptr %3, align 8, !tbaa !38
  %28 = getelementptr inbounds nuw %struct._ir_bitqueue, ptr %27, i32 0, i32 1
  store i32 %26, ptr %28, align 4, !tbaa !43
  br label %29

29:                                               ; preds = %25, %2
  call void @llvm.lifetime.end.p0(i64 4, ptr %5) #10
  ret void
}

; Function Attrs: nounwind uwtable
define internal zeroext i1 @ir_is_dead(ptr noundef %0, i32 noundef %1) #0 {
  %3 = alloca i1, align 1
  %4 = alloca ptr, align 8
  %5 = alloca i32, align 4
  store ptr %0, ptr %4, align 8, !tbaa !4
  store i32 %1, ptr %5, align 4, !tbaa !33
  %6 = load ptr, ptr %4, align 8, !tbaa !4
  %7 = getelementptr inbounds nuw %struct._ir_ctx, ptr %6, i32 0, i32 13
  %8 = load ptr, ptr %7, align 8, !tbaa !47
  %9 = load i32, ptr %5, align 4, !tbaa !33
  %10 = sext i32 %9 to i64
  %11 = getelementptr inbounds %struct._ir_use_list, ptr %8, i64 %10
  %12 = getelementptr inbounds nuw %struct._ir_use_list, ptr %11, i32 0, i32 1
  %13 = load i32, ptr %12, align 4, !tbaa !48
  %14 = icmp eq i32 %13, 0
  br i1 %14, label %15, label %29

15:                                               ; preds = %2
  %16 = load ptr, ptr %4, align 8, !tbaa !4
  %17 = getelementptr inbounds nuw %struct._ir_ctx, ptr %16, i32 0, i32 0
  %18 = load ptr, ptr %17, align 8, !tbaa !45
  %19 = load i32, ptr %5, align 4, !tbaa !33
  %20 = sext i32 %19 to i64
  %21 = getelementptr inbounds %struct._ir_insn, ptr %18, i64 %20
  %22 = getelementptr inbounds nuw %struct._ir_insn, ptr %21, i32 0, i32 0
  %23 = getelementptr inbounds nuw %struct.anon, ptr %22, i32 0, i32 0
  %24 = getelementptr inbounds nuw %struct.anon.0, ptr %23, i32 0, i32 0
  %25 = getelementptr inbounds nuw %struct.anon.2, ptr %24, i32 0, i32 0
  %26 = load i8, ptr %25, align 8, !tbaa !46
  %27 = zext i8 %26 to i32
  %28 = icmp sle i32 %27, 60
  store i1 %28, ptr %3, align 1
  br label %33

29:                                               ; preds = %2
  %30 = load ptr, ptr %4, align 8, !tbaa !4
  %31 = load i32, ptr %5, align 4, !tbaa !33
  %32 = call zeroext i1 @ir_is_dead_load(ptr noundef %30, i32 noundef %31)
  store i1 %32, ptr %3, align 1
  br label %33

33:                                               ; preds = %29, %15
  %34 = load i1, ptr %3, align 1
  ret i1 %34
}

; Function Attrs: nounwind uwtable
define internal void @ir_iter_remove_insn(ptr noundef %0, i32 noundef %1, ptr noundef %2) #0 {
  %4 = alloca ptr, align 8
  %5 = alloca i32, align 4
  %6 = alloca ptr, align 8
  %7 = alloca i32, align 4
  %8 = alloca i32, align 4
  %9 = alloca ptr, align 8
  %10 = alloca ptr, align 8
  %11 = alloca ptr, align 8
  %12 = alloca i32, align 4
  store ptr %0, ptr %4, align 8, !tbaa !4
  store i32 %1, ptr %5, align 4, !tbaa !33
  store ptr %2, ptr %6, align 8, !tbaa !38
  call void @llvm.lifetime.start.p0(i64 4, ptr %7) #10
  call void @llvm.lifetime.start.p0(i64 4, ptr %8) #10
  call void @llvm.lifetime.start.p0(i64 8, ptr %9) #10
  call void @llvm.lifetime.start.p0(i64 8, ptr %10) #10
  br label %13

13:                                               ; preds = %3
  call void @llvm.lifetime.start.p0(i64 8, ptr %11) #10
  %14 = load ptr, ptr %4, align 8, !tbaa !4
  %15 = getelementptr inbounds nuw %struct._ir_ctx, ptr %14, i32 0, i32 13
  %16 = load ptr, ptr %15, align 8, !tbaa !47
  %17 = load i32, ptr %5, align 4, !tbaa !33
  %18 = sext i32 %17 to i64
  %19 = getelementptr inbounds %struct._ir_use_list, ptr %16, i64 %18
  store ptr %19, ptr %11, align 8, !tbaa !55
  %20 = load ptr, ptr %11, align 8, !tbaa !55
  %21 = getelementptr inbounds nuw %struct._ir_use_list, ptr %20, i32 0, i32 1
  store i32 0, ptr %21, align 4, !tbaa !48
  call void @llvm.lifetime.end.p0(i64 8, ptr %11) #10
  br label %22

22:                                               ; preds = %13
  br label %23

23:                                               ; preds = %22
  %24 = load ptr, ptr %4, align 8, !tbaa !4
  %25 = getelementptr inbounds nuw %struct._ir_ctx, ptr %24, i32 0, i32 0
  %26 = load ptr, ptr %25, align 8, !tbaa !45
  %27 = load i32, ptr %5, align 4, !tbaa !33
  %28 = sext i32 %27 to i64
  %29 = getelementptr inbounds %struct._ir_insn, ptr %26, i64 %28
  store ptr %29, ptr %10, align 8, !tbaa !31
  %30 = load ptr, ptr %10, align 8, !tbaa !31
  %31 = getelementptr inbounds nuw %struct._ir_insn, ptr %30, i32 0, i32 0
  %32 = getelementptr inbounds nuw %struct.anon, ptr %31, i32 0, i32 0
  %33 = getelementptr inbounds nuw %struct.anon.0, ptr %32, i32 0, i32 1
  %34 = load i16, ptr %33, align 2, !tbaa !46
  %35 = zext i16 %34 to i32
  store i32 %35, ptr %8, align 4, !tbaa !33
  %36 = load ptr, ptr %10, align 8, !tbaa !31
  %37 = getelementptr inbounds nuw %struct._ir_insn, ptr %36, i32 0, i32 0
  %38 = getelementptr inbounds nuw %struct.anon, ptr %37, i32 0, i32 0
  %39 = getelementptr inbounds nuw %struct.anon.0, ptr %38, i32 0, i32 0
  store i16 0, ptr %39, align 8, !tbaa !46
  store i32 1, ptr %7, align 4, !tbaa !33
  %40 = load ptr, ptr %10, align 8, !tbaa !31
  %41 = getelementptr inbounds nuw %struct._ir_insn, ptr %40, i32 0, i32 0
  %42 = getelementptr inbounds nuw %struct.anon, ptr %41, i32 0, i32 0
  %43 = getelementptr inbounds [1 x i32], ptr %42, i64 0, i64 0
  %44 = load i32, ptr %7, align 4, !tbaa !33
  %45 = sext i32 %44 to i64
  %46 = getelementptr inbounds i32, ptr %43, i64 %45
  store ptr %46, ptr %9, align 8, !tbaa !52
  br label %47

47:                                               ; preds = %105, %23
  %48 = load i32, ptr %7, align 4, !tbaa !33
  %49 = load i32, ptr %8, align 4, !tbaa !33
  %50 = icmp sle i32 %48, %49
  br i1 %50, label %51, label %110

51:                                               ; preds = %47
  call void @llvm.lifetime.start.p0(i64 4, ptr %12) #10
  %52 = load ptr, ptr %9, align 8, !tbaa !52
  %53 = load i32, ptr %52, align 4, !tbaa !33
  store i32 %53, ptr %12, align 4, !tbaa !33
  %54 = load ptr, ptr %9, align 8, !tbaa !52
  store i32 0, ptr %54, align 4, !tbaa !33
  %55 = load i32, ptr %12, align 4, !tbaa !33
  %56 = icmp sgt i32 %55, 0
  br i1 %56, label %57, label %104

57:                                               ; preds = %51
  %58 = load ptr, ptr %4, align 8, !tbaa !4
  %59 = load i32, ptr %12, align 4, !tbaa !33
  %60 = load i32, ptr %5, align 4, !tbaa !33
  call void @ir_use_list_remove_all(ptr noundef %58, i32 noundef %59, i32 noundef %60)
  %61 = load ptr, ptr %4, align 8, !tbaa !4
  %62 = load i32, ptr %12, align 4, !tbaa !33
  %63 = call zeroext i1 @ir_is_dead(ptr noundef %61, i32 noundef %62)
  br i1 %63, label %64, label %67

64:                                               ; preds = %57
  %65 = load ptr, ptr %6, align 8, !tbaa !38
  %66 = load i32, ptr %12, align 4, !tbaa !33
  call void @ir_bitqueue_add(ptr noundef %65, i32 noundef %66)
  br label %103

67:                                               ; preds = %57
  %68 = load ptr, ptr %4, align 8, !tbaa !4
  %69 = getelementptr inbounds nuw %struct._ir_ctx, ptr %68, i32 0, i32 0
  %70 = load ptr, ptr %69, align 8, !tbaa !45
  %71 = load i32, ptr %12, align 4, !tbaa !33
  %72 = sext i32 %71 to i64
  %73 = getelementptr inbounds %struct._ir_insn, ptr %70, i64 %72
  %74 = getelementptr inbounds nuw %struct._ir_insn, ptr %73, i32 0, i32 0
  %75 = getelementptr inbounds nuw %struct.anon, ptr %74, i32 0, i32 0
  %76 = getelementptr inbounds nuw %struct.anon.0, ptr %75, i32 0, i32 0
  %77 = getelementptr inbounds nuw %struct.anon.2, ptr %76, i32 0, i32 0
  %78 = load i8, ptr %77, align 8, !tbaa !46
  %79 = zext i8 %78 to i32
  %80 = icmp eq i32 %79, 59
  br i1 %80, label %81, label %102

81:                                               ; preds = %67
  %82 = load ptr, ptr %4, align 8, !tbaa !4
  %83 = getelementptr inbounds nuw %struct._ir_ctx, ptr %82, i32 0, i32 13
  %84 = load ptr, ptr %83, align 8, !tbaa !47
  %85 = load i32, ptr %12, align 4, !tbaa !33
  %86 = sext i32 %85 to i64
  %87 = getelementptr inbounds %struct._ir_use_list, ptr %84, i64 %86
  %88 = getelementptr inbounds nuw %struct._ir_use_list, ptr %87, i32 0, i32 1
  %89 = load i32, ptr %88, align 4, !tbaa !48
  %90 = icmp eq i32 %89, 1
  br i1 %90, label %91, label %102

91:                                               ; preds = %81
  %92 = load ptr, ptr %6, align 8, !tbaa !38
  %93 = load ptr, ptr %4, align 8, !tbaa !4
  %94 = getelementptr inbounds nuw %struct._ir_ctx, ptr %93, i32 0, i32 0
  %95 = load ptr, ptr %94, align 8, !tbaa !45
  %96 = load i32, ptr %12, align 4, !tbaa !33
  %97 = sext i32 %96 to i64
  %98 = getelementptr inbounds %struct._ir_insn, ptr %95, i64 %97
  %99 = getelementptr inbounds nuw %struct._ir_insn, ptr %98, i32 0, i32 0
  %100 = getelementptr inbounds nuw %struct.anon, ptr %99, i32 0, i32 1
  %101 = load i32, ptr %100, align 4, !tbaa !46
  call void @ir_bitqueue_add(ptr noundef %92, i32 noundef %101)
  br label %102

102:                                              ; preds = %91, %81, %67
  br label %103

103:                                              ; preds = %102, %64
  br label %104

104:                                              ; preds = %103, %51
  call void @llvm.lifetime.end.p0(i64 4, ptr %12) #10
  br label %105

105:                                              ; preds = %104
  %106 = load i32, ptr %7, align 4, !tbaa !33
  %107 = add nsw i32 %106, 1
  store i32 %107, ptr %7, align 4, !tbaa !33
  %108 = load ptr, ptr %9, align 8, !tbaa !52
  %109 = getelementptr inbounds nuw i32, ptr %108, i32 1
  store ptr %109, ptr %9, align 8, !tbaa !52
  br label %47

110:                                              ; preds = %47
  call void @llvm.lifetime.end.p0(i64 8, ptr %10) #10
  call void @llvm.lifetime.end.p0(i64 8, ptr %9) #10
  call void @llvm.lifetime.end.p0(i64 4, ptr %8) #10
  call void @llvm.lifetime.end.p0(i64 4, ptr %7) #10
  ret void
}