; Function Attrs: nounwind uwtable
define internal fastcc void @ir_iter_remove_insn(ptr noundef %0, i32 noundef range(i32 0, -2147483648) %1, ptr noundef nonnull captures(none) %2) unnamed_addr #0 {
  %4 = getelementptr inbounds nuw i8, ptr %0, i64 72
  %5 = load ptr, ptr %4, align 8, !tbaa !41
  %6 = zext nneg i32 %1 to i64
  %7 = getelementptr inbounds nuw %struct._ir_use_list, ptr %5, i64 %6, i32 1
  store i32 0, ptr %7, align 4, !tbaa !42
  %8 = load ptr, ptr %0, align 8, !tbaa !38
  %9 = getelementptr inbounds nuw %struct._ir_insn, ptr %8, i64 %6
  %10 = getelementptr inbounds nuw i8, ptr %9, i64 2
  %11 = load i16, ptr %10, align 2, !tbaa !39
  store i16 0, ptr %9, align 8, !tbaa !39
  %.not36 = icmp eq i16 %11, 0
  br i1 %.not36, label %._crit_edge, label %.lr.ph

.lr.ph:                                           ; preds = %3
  %12 = zext i16 %11 to i32
  %13 = getelementptr inbounds nuw i8, ptr %2, i64 8
  %14 = getelementptr inbounds nuw i8, ptr %2, i64 4
  br label %15

15:                                               ; preds = %.lr.ph, %ir_bitqueue_add.exit31
  %.pn = phi ptr [ %9, %.lr.ph ], [ %.02938, %ir_bitqueue_add.exit31 ]
  %.037 = phi i32 [ 1, %.lr.ph ], [ %58, %ir_bitqueue_add.exit31 ]
  %.02938 = getelementptr inbounds nuw i8, ptr %.pn, i64 4
  %16 = load i32, ptr %.02938, align 4, !tbaa !40
  store i32 0, ptr %.02938, align 4, !tbaa !40
  %17 = icmp sgt i32 %16, 0
  br i1 %17, label %18, label %ir_bitqueue_add.exit31

18:                                               ; preds = %15
  tail call void @ir_use_list_remove_all(ptr noundef nonnull %0, i32 noundef %16, i32 noundef %1) #13
  %19 = load ptr, ptr %4, align 8, !tbaa !41
  %20 = zext nneg i32 %16 to i64
  %21 = getelementptr inbounds nuw %struct._ir_use_list, ptr %19, i64 %20, i32 1
  %22 = load i32, ptr %21, align 4, !tbaa !42
  %.pre = load ptr, ptr %0, align 8, !tbaa !38
  %.phi.trans.insert = getelementptr inbounds nuw %struct._ir_insn, ptr %.pre, i64 %20
  %.pre39 = load i8, ptr %.phi.trans.insert, align 8, !tbaa !39
  switch i32 %22, label %ir_is_dead.exit.thread33 [
    i32 0, label %ir_is_dead.exit
    i32 1, label %23
  ]

23:                                               ; preds = %18
  %24 = zext i8 %.pre39 to i64
  %25 = getelementptr inbounds nuw [108 x i32], ptr @ir_op_flags, i64 0, i64 %24
  %26 = load i32, ptr %25, align 4, !tbaa !40
  %27 = and i32 %26, 1216
  %28 = icmp ne i32 %27, 1024
  %29 = icmp ne i8 %.pre39, 71
  %or.cond.i.i = and i1 %29, %28
  br i1 %or.cond.i.i, label %ir_is_dead.exit.thread33.thread40, label %ir_is_dead.exit.thread

ir_is_dead.exit:                                  ; preds = %18
  %30 = icmp ult i8 %.pre39, 61
  br i1 %30, label %ir_is_dead.exit.thread, label %ir_bitqueue_add.exit31

ir_is_dead.exit.thread:                           ; preds = %23, %ir_is_dead.exit
  %31 = lshr i32 %16, 6
  %32 = and i32 %16, 63
  %33 = zext nneg i32 %32 to i64
  %34 = shl nuw i64 1, %33
  %35 = load ptr, ptr %13, align 8, !tbaa !36
  %36 = zext nneg i32 %31 to i64
  %37 = getelementptr inbounds nuw i64, ptr %35, i64 %36
  %38 = load i64, ptr %37, align 8, !tbaa !37
  %39 = or i64 %38, %34
  store i64 %39, ptr %37, align 8, !tbaa !37
  %40 = load i32, ptr %14, align 4, !tbaa !35
  %41 = icmp ult i32 %31, %40
  br i1 %41, label %ir_bitqueue_add.exit31.sink.split, label %ir_bitqueue_add.exit31

ir_is_dead.exit.thread33:                         ; preds = %18
  %42 = icmp eq i8 %.pre39, 59
  %43 = icmp eq i32 %22, 1
  %or.cond = and i1 %42, %43
  br i1 %or.cond, label %.thread, label %ir_bitqueue_add.exit31

ir_is_dead.exit.thread33.thread40:                ; preds = %23
  %44 = icmp eq i8 %.pre39, 59
  br i1 %44, label %.thread, label %ir_bitqueue_add.exit31

.thread:                                          ; preds = %ir_is_dead.exit.thread33, %ir_is_dead.exit.thread33.thread40
  %45 = getelementptr inbounds nuw %struct._ir_insn, ptr %.pre, i64 %20, i32 0, i32 1
  %46 = load i32, ptr %45, align 4, !tbaa !39
  %47 = lshr i32 %46, 6
  %48 = and i32 %46, 63
  %49 = zext nneg i32 %48 to i64
  %50 = shl nuw i64 1, %49
  %51 = load ptr, ptr %13, align 8, !tbaa !36
  %52 = zext nneg i32 %47 to i64
  %53 = getelementptr inbounds nuw i64, ptr %51, i64 %52
  %54 = load i64, ptr %53, align 8, !tbaa !37
  %55 = or i64 %50, %54
  store i64 %55, ptr %53, align 8, !tbaa !37
  %56 = load i32, ptr %14, align 4, !tbaa !35
  %57 = icmp ult i32 %47, %56
  br i1 %57, label %ir_bitqueue_add.exit31.sink.split, label %ir_bitqueue_add.exit31

ir_bitqueue_add.exit31.sink.split:                ; preds = %.thread, %ir_is_dead.exit.thread
  %.sink = phi i32 [ %31, %ir_is_dead.exit.thread ], [ %47, %.thread ]
  store i32 %.sink, ptr %14, align 4, !tbaa !35
  br label %ir_bitqueue_add.exit31

ir_bitqueue_add.exit31:                           ; preds = %ir_bitqueue_add.exit31.sink.split, %ir_is_dead.exit, %ir_is_dead.exit.thread33.thread40, %.thread, %ir_is_dead.exit.thread, %ir_is_dead.exit.thread33, %15
  %58 = add nuw nsw i32 %.037, 1
  %exitcond.not = icmp eq i32 %.037, %12
  br i1 %exitcond.not, label %._crit_edge, label %15

._crit_edge:                                      ; preds = %ir_bitqueue_add.exit31, %3
  ret void
}